; Function Attrs: mustprogress nounwind uwtable
define void @_ZN5arrow6detail15FingerprintableD2Ev(ptr noundef nonnull align 8 captures(none) dereferenceable(24) initializes((0, 8)) %0) unnamed_addr #0 align 2 personality ptr @__gxx_personality_v0 {
  store ptr getelementptr inbounds nuw inrange(-16, 32) (i8, ptr @_ZTVN5arrow6detail15FingerprintableE, i64 16), ptr %0, align 8, !tbaa !330
  %2 = getelementptr inbounds nuw i8, ptr %0, i64 8
  %3 = load atomic i64, ptr %2 seq_cst, align 8
  %.0.i.i = inttoptr i64 %3 to ptr
  %4 = icmp eq i64 %3, 0
  br i1 %4, label %14, label %5

5:                                                ; preds = %1
  %6 = load ptr, ptr %.0.i.i, align 8, !tbaa !47
  %7 = getelementptr inbounds nuw i8, ptr %.0.i.i, i64 16
  %8 = icmp eq ptr %6, %7
  br i1 %8, label %_ZNKSt7__cxx1112basic_stringIcSt11char_traitsIcESaIcEE11_M_is_localEv.exit.thread.i.i, label %_ZNKSt7__cxx1112basic_stringIcSt11char_traitsIcESaIcEE11_M_is_localEv.exit.i.i

_ZNKSt7__cxx1112basic_stringIcSt11char_traitsIcESaIcEE11_M_is_localEv.exit.thread.i.i: ; preds = %5
  %9 = getelementptr inbounds nuw i8, ptr %.0.i.i, i64 8
  %10 = load i64, ptr %9, align 8, !tbaa !40
  %11 = icmp ult i64 %10, 16
  tail call void @llvm.assume(i1 %11)
  br label %_ZNSt7__cxx1112basic_stringIcSt11char_traitsIcESaIcEED2Ev.exit

_ZNKSt7__cxx1112basic_stringIcSt11char_traitsIcESaIcEE11_M_is_localEv.exit.i.i: ; preds = %5
  %12 = load i64, ptr %7, align 8, !tbaa !42
  %13 = add i64 %12, 1
  tail call void @_ZdlPvm(ptr noundef %6, i64 noundef %13) #39
  br label %_ZNSt7__cxx1112basic_stringIcSt11char_traitsIcESaIcEED2Ev.exit

_ZNSt7__cxx1112basic_stringIcSt11char_traitsIcESaIcEED2Ev.exit: ; preds = %_ZNKSt7__cxx1112basic_stringIcSt11char_traitsIcESaIcEE11_M_is_localEv.exit.thread.i.i, %_ZNKSt7__cxx1112basic_stringIcSt11char_traitsIcESaIcEE11_M_is_localEv.exit.i.i
  tail call void @_ZdlPvm(ptr noundef nonnull %.0.i.i, i64 noundef 32) #39
  br label %14

14:                                               ; preds = %_ZNSt7__cxx1112basic_stringIcSt11char_traitsIcESaIcEED2Ev.exit, %1
  %15 = getelementptr inbounds nuw i8, ptr %0, i64 16
  %16 = load atomic i64, ptr %15 seq_cst, align 8
  %.0.i.i2 = inttoptr i64 %16 to ptr
  %17 = icmp eq i64 %16, 0
  br i1 %17, label %27, label %18

18:                                               ; preds = %14
  %19 = load ptr, ptr %.0.i.i2, align 8, !tbaa !47
  %20 = getelementptr inbounds nuw i8, ptr %.0.i.i2, i64 16
  %21 = icmp eq ptr %19, %20
  br i1 %21, label %_ZNKSt7__cxx1112basic_stringIcSt11char_traitsIcESaIcEE11_M_is_localEv.exit.thread.i.i4, label %_ZNKSt7__cxx1112basic_stringIcSt11char_traitsIcESaIcEE11_M_is_localEv.exit.i.i3

_ZNKSt7__cxx1112basic_stringIcSt11char_traitsIcESaIcEE11_M_is_localEv.exit.thread.i.i4: ; preds = %18
  %22 = getelementptr inbounds nuw i8, ptr %.0.i.i2, i64 8
  %23 = load i64, ptr %22, align 8, !tbaa !40
  %24 = icmp ult i64 %23, 16
  tail call void @llvm.assume(i1 %24)
  br label %_ZNSt7__cxx1112basic_stringIcSt11char_traitsIcESaIcEED2Ev.exit5

_ZNKSt7__cxx1112basic_stringIcSt11char_traitsIcESaIcEE11_M_is_localEv.exit.i.i3: ; preds = %18
  %25 = load i64, ptr %20, align 8, !tbaa !42
  %26 = add i64 %25, 1
  tail call void @_ZdlPvm(ptr noundef %19, i64 noundef %26) #39
  br label %_ZNSt7__cxx1112basic_stringIcSt11char_traitsIcESaIcEED2Ev.exit5

_ZNSt7__cxx1112basic_stringIcSt11char_traitsIcESaIcEED2Ev.exit5: ; preds = %_ZNKSt7__cxx1112basic_stringIcSt11char_traitsIcESaIcEE11_M_is_localEv.exit.thread.i.i4, %_ZNKSt7__cxx1112basic_stringIcSt11char_traitsIcESaIcEE11_M_is_localEv.exit.i.i3
  tail call void @_ZdlPvm(ptr noundef nonnull %.0.i.i2, i64 noundef 32) #39
  br label %27

27:                                               ; preds = %_ZNSt7__cxx1112basic_stringIcSt11char_traitsIcESaIcEED2Ev.exit5, %14
  ret void
}